target datalayout = "e-m:e-p270:32:32-p271:32:32-p272:64:64-i64:64-i128:128-f80:128-n8:16:32:64-S128"
target triple = "x86_64-pc-linux-gnu"

%struct.Agobj_s = type { %struct.Agtag_s, ptr }
%struct.Agtag_s = type { i32, i64 }
%struct.Agraphinfo_t = type { %struct.Agrec_s, ptr, ptr, %struct.boxf, [4 x %struct.pointf_s], i8, i8, i8, i8, i32, double, double, i16, ptr, ptr, ptr, ptr, i32, ptr, ptr, ptr, ptr, i16, i16, i32, ptr, ptr, ptr, ptr, ptr, i32, ptr, ptr, %struct.nlist_t, ptr, ptr, i32, i32, i8, i8, i32, i32, i32, ptr, ptr, ptr, ptr, i8, i8, i8, i8, i8 }
%struct.Agrec_s = type { ptr, ptr }
%struct.boxf = type { %struct.pointf_s, %struct.pointf_s }
%struct.pointf_s = type { double, double }
%struct.nlist_t = type { ptr, i64 }
%struct.Agnodeinfo_t = type { %struct.Agrec_s, ptr, ptr, %struct.pointf_s, double, double, %struct.boxf, double, double, double, double, double, ptr, ptr, ptr, i8, i8, i8, i8, i32, i32, i32, ptr, double, i8, i8, ptr, ptr, i8, i64, i8, i8, i8, ptr, ptr, %struct.elist, %struct.elist, %struct.elist, %struct.elist, %struct.elist, ptr, i32, ptr, i32, i32, double, %struct.elist, %struct.elist, %struct.elist, %struct.elist, ptr, i32, i32, i32, [1 x double] }
%struct.elist = type { ptr, i64 }
%struct.Agedgeinfo_t = type { %struct.Agrec_s, ptr, %struct.port, %struct.port, ptr, ptr, ptr, ptr, i8, i8, i8, i8, i8, ptr, ptr, double, double, %struct.Ppoly_t, i8, i8, i16, i32, i32, i32, i16, i32, ptr }
%struct.port = type { %struct.pointf_s, double, ptr, i8, i8, i8, i8, i8, i8, ptr }
%struct.Ppoly_t = type { ptr, i64 }

; Function Attrs: nounwind uwtable
define internal void @closeDerivedGraph(ptr noundef %0) #0 {
  %2 = alloca ptr, align 8
  %3 = alloca ptr, align 8
  %4 = alloca ptr, align 8
  store ptr %0, ptr %2, align 8, !tbaa !3
  call void @llvm.lifetime.start.p0(i64 8, ptr %3) #8
  call void @llvm.lifetime.start.p0(i64 8, ptr %4) #8
  %5 = load ptr, ptr %2, align 8, !tbaa !3
  %6 = call ptr @agfstnode(ptr noundef %5)
  store ptr %6, ptr %3, align 8, !tbaa !37
  br label %7

7:                                                ; preds = %38, %1
  %8 = load ptr, ptr %3, align 8, !tbaa !37
  %9 = icmp ne ptr %8, null
  br i1 %9, label %10, label %42

10:                                               ; preds = %7
  %11 = load ptr, ptr %2, align 8, !tbaa !3
  %12 = load ptr, ptr %3, align 8, !tbaa !37
  %13 = call ptr @agfstout(ptr noundef %11, ptr noundef %12)
  store ptr %13, ptr %4, align 8, !tbaa !47
  br label %14

14:                                               ; preds = %23, %10
  %15 = load ptr, ptr %4, align 8, !tbaa !47
  %16 = icmp ne ptr %15, null
  br i1 %16, label %17, label %27

17:                                               ; preds = %14
  %18 = load ptr, ptr %4, align 8, !tbaa !47
  %19 = getelementptr inbounds nuw %struct.Agobj_s, ptr %18, i32 0, i32 1
  %20 = load ptr, ptr %19, align 8, !tbaa !8
  %21 = getelementptr inbounds nuw %struct.Agedgeinfo_t, ptr %20, i32 0, i32 14
  %22 = load ptr, ptr %21, align 8, !tbaa !76
  call void @free(ptr noundef %22) #8
  br label %23

23:                                               ; preds = %17
  %24 = load ptr, ptr %2, align 8, !tbaa !3
  %25 = load ptr, ptr %4, align 8, !tbaa !47
  %26 = call ptr @agnxtout(ptr noundef %24, ptr noundef %25)
  store ptr %26, ptr %4, align 8, !tbaa !47
  br label %14, !llvm.loop !89

27:                                               ; preds = %14
  %28 = load ptr, ptr %3, align 8, !tbaa !37
  %29 = getelementptr inbounds nuw %struct.Agobj_s, ptr %28, i32 0, i32 1
  %30 = load ptr, ptr %29, align 8, !tbaa !8
  %31 = getelementptr inbounds nuw %struct.Agnodeinfo_t, ptr %30, i32 0, i32 14
  %32 = load ptr, ptr %31, align 8, !tbaa !38
  call void @free(ptr noundef %32) #8
  %33 = load ptr, ptr %3, align 8, !tbaa !37
  %34 = getelementptr inbounds nuw %struct.Agobj_s, ptr %33, i32 0, i32 1
  %35 = load ptr, ptr %34, align 8, !tbaa !8
  %36 = getelementptr inbounds nuw %struct.Agnodeinfo_t, ptr %35, i32 0, i32 22
  %37 = load ptr, ptr %36, align 8, !tbaa !84
  call void @free(ptr noundef %37) #8
  br label %38

38:                                               ; preds = %27
  %39 = load ptr, ptr %2, align 8, !tbaa !3
  %40 = load ptr, ptr %3, align 8, !tbaa !37
  %41 = call ptr @agnxtnode(ptr noundef %39, ptr noundef %40)
  store ptr %41, ptr %3, align 8, !tbaa !37
  br label %7, !llvm.loop !90

42:                                               ; preds = %7
  %43 = load ptr, ptr %2, align 8, !tbaa !3
  %44 = call i32 @agclose(ptr noundef %43)
  call void @llvm.lifetime.end.p0(i64 8, ptr %4) #8
  call void @llvm.lifetime.end.p0(i64 8, ptr %3) #8
  ret void
}

; Function Attrs: nounwind uwtable
define void @circo_cleanup(ptr noundef %0) #0 {
  %2 = alloca ptr, align 8
  %3 = alloca ptr, align 8
  %4 = alloca ptr, align 8
  %5 = alloca i32, align 4
  store ptr %0, ptr %2, align 8, !tbaa !3
  call void @llvm.lifetime.start.p0(i64 8, ptr %3) #8
  call void @llvm.lifetime.start.p0(i64 8, ptr %4) #8
  %6 = load ptr, ptr %2, align 8, !tbaa !3
  %7 = call ptr @agfstnode(ptr noundef %6)
  store ptr %7, ptr %3, align 8, !tbaa !37
  %8 = load ptr, ptr %3, align 8, !tbaa !37
  %9 = icmp eq ptr %8, null
  br i1 %9, label %10, label %11

10:                                               ; preds = %1
  store i32 1, ptr %5, align 4
  br label %45

11:                                               ; preds = %1
  %12 = load ptr, ptr %2, align 8, !tbaa !3
  %13 = getelementptr inbounds nuw %struct.Agobj_s, ptr %12, i32 0, i32 1
  %14 = load ptr, ptr %13, align 8, !tbaa !8
  %15 = getelementptr inbounds nuw %struct.Agraphinfo_t, ptr %14, i32 0, i32 13
  %16 = load ptr, ptr %15, align 8, !tbaa !64
  call void @closeDerivedGraph(ptr noundef %16)
  br label %17

17:                                               ; preds = %35, %11
  %18 = load ptr, ptr %3, align 8, !tbaa !37
  %19 = icmp ne ptr %18, null
  br i1 %19, label %20, label %39

20:                                               ; preds = %17
  %21 = load ptr, ptr %2, align 8, !tbaa !3
  %22 = load ptr, ptr %3, align 8, !tbaa !37
  %23 = call ptr @agfstout(ptr noundef %21, ptr noundef %22)
  store ptr %23, ptr %4, align 8, !tbaa !47
  br label %24

24:                                               ; preds = %29, %20
  %25 = load ptr, ptr %4, align 8, !tbaa !47
  %26 = icmp ne ptr %25, null
  br i1 %26, label %27, label %33

27:                                               ; preds = %24
  %28 = load ptr, ptr %4, align 8, !tbaa !47
  call void @gv_cleanup_edge(ptr noundef %28)
  br label %29

29:                                               ; preds = %27
  %30 = load ptr, ptr %2, align 8, !tbaa !3
  %31 = load ptr, ptr %4, align 8, !tbaa !47
  %32 = call ptr @agnxtout(ptr noundef %30, ptr noundef %31)
  store ptr %32, ptr %4, align 8, !tbaa !47
  br label %24, !llvm.loop !87

33:                                               ; preds = %24
  %34 = load ptr, ptr %3, align 8, !tbaa !37
  call void @gv_cleanup_node(ptr noundef %34)
  br label %35

35:                                               ; preds = %33
  %36 = load ptr, ptr %2, align 8, !tbaa !3
  %37 = load ptr, ptr %3, align 8, !tbaa !37
  %38 = call ptr @agnxtnode(ptr noundef %36, ptr noundef %37)
  store ptr %38, ptr %3, align 8, !tbaa !37
  br label %17, !llvm.loop !88

39:                                               ; preds = %17
  %40 = load ptr, ptr %2, align 8, !tbaa !3
  %41 = getelementptr inbounds nuw %struct.Agobj_s, ptr %40, i32 0, i32 1
  %42 = load ptr, ptr %41, align 8, !tbaa !8
  %43 = getelementptr inbounds nuw %struct.Agraphinfo_t, ptr %42, i32 0, i32 16
  %44 = load ptr, ptr %43, align 8, !tbaa !36
  call void @free(ptr noundef %44) #8
  store i32 0, ptr %5, align 4
  br label %45

45:                                               ; preds = %39, %10
  call void @llvm.lifetime.end.p0(i64 8, ptr %4) #8
  call void @llvm.lifetime.end.p0(i64 8, ptr %3) #8
  %46 = load i32, ptr %5, align 4
  switch i32 %46, label %48 [
    i32 0, label %47
    i32 1, label %47
  ]

47:                                               ; preds = %45, %45
  ret void

48:                                               ; preds = %45
  unreachable
}