; Function Attrs: nounwind uwtable
define void @circo_cleanup(ptr noundef %0) local_unnamed_addr #0 {
  %2 = tail call ptr @agfstnode(ptr noundef %0) #8
  %3 = icmp eq ptr %2, null
  br i1 %3, label %33, label %4

4:                                                ; preds = %1
  %5 = getelementptr inbounds nuw i8, ptr %0, i64 16
  %6 = load ptr, ptr %5, align 8, !tbaa !3
  %7 = getelementptr inbounds nuw i8, ptr %6, i64 160
  %8 = load ptr, ptr %7, align 8, !tbaa !56
  %9 = tail call ptr @agfstnode(ptr noundef %8) #8
  %.not17.i = icmp eq ptr %9, null
  br i1 %.not17.i, label %closeDerivedGraph.exit, label %.lr.ph20.i

.lr.ph20.i:                                       ; preds = %4, %._crit_edge.i
  %.01318.i = phi ptr [ %23, %._crit_edge.i ], [ %9, %4 ]
  %10 = tail call ptr @agfstout(ptr noundef %8, ptr noundef nonnull %.01318.i) #8
  %.not1415.i = icmp eq ptr %10, null
  br i1 %.not1415.i, label %._crit_edge.i, label %.lr.ph.i

.lr.ph.i:                                         ; preds = %.lr.ph20.i, %.lr.ph.i
  %.016.i = phi ptr [ %15, %.lr.ph.i ], [ %10, %.lr.ph20.i ]
  %11 = getelementptr inbounds nuw i8, ptr %.016.i, i64 16
  %12 = load ptr, ptr %11, align 8, !tbaa !3
  %13 = getelementptr inbounds nuw i8, ptr %12, i64 168
  %14 = load ptr, ptr %13, align 8, !tbaa !76
  tail call void @free(ptr noundef %14) #8
  %15 = tail call ptr @agnxtout(ptr noundef %8, ptr noundef nonnull %.016.i) #8
  %.not14.i = icmp eq ptr %15, null
  br i1 %.not14.i, label %._crit_edge.i, label %.lr.ph.i, !llvm.loop !90

._crit_edge.i:                                    ; preds = %.lr.ph.i, %.lr.ph20.i
  %16 = getelementptr inbounds nuw i8, ptr %.01318.i, i64 16
  %17 = load ptr, ptr %16, align 8, !tbaa !3
  %18 = getelementptr inbounds nuw i8, ptr %17, i64 152
  %19 = load ptr, ptr %18, align 8, !tbaa !36
  tail call void @free(ptr noundef %19) #8
  %20 = load ptr, ptr %16, align 8, !tbaa !3
  %21 = getelementptr inbounds nuw i8, ptr %20, i64 176
  %22 = load ptr, ptr %21, align 8, !tbaa !59
  tail call void @free(ptr noundef %22) #8
  %23 = tail call ptr @agnxtnode(ptr noundef %8, ptr noundef nonnull %.01318.i) #8
  %.not.i = icmp eq ptr %23, null
  br i1 %.not.i, label %closeDerivedGraph.exit, label %.lr.ph20.i, !llvm.loop !91

closeDerivedGraph.exit:                           ; preds = %._crit_edge.i, %4
  %24 = tail call i32 @agclose(ptr noundef %8) #8
  br label %25

25:                                               ; preds = %closeDerivedGraph.exit, %._crit_edge
  %.01419 = phi ptr [ %2, %closeDerivedGraph.exit ], [ %28, %._crit_edge ]
  %26 = tail call ptr @agfstout(ptr noundef %0, ptr noundef nonnull %.01419) #8
  %.not1617 = icmp eq ptr %26, null
  br i1 %.not1617, label %._crit_edge, label %.lr.ph

.lr.ph:                                           ; preds = %25, %.lr.ph
  %.018 = phi ptr [ %27, %.lr.ph ], [ %26, %25 ]
  tail call void @gv_cleanup_edge(ptr noundef nonnull %.018) #8
  %27 = tail call ptr @agnxtout(ptr noundef %0, ptr noundef nonnull %.018) #8
  %.not16 = icmp eq ptr %27, null
  br i1 %.not16, label %._crit_edge, label %.lr.ph, !llvm.loop !92

._crit_edge:                                      ; preds = %.lr.ph, %25
  tail call void @gv_cleanup_node(ptr noundef nonnull %.01419) #8
  %28 = tail call ptr @agnxtnode(ptr noundef %0, ptr noundef nonnull %.01419) #8
  %.not = icmp eq ptr %28, null
  br i1 %.not, label %29, label %25, !llvm.loop !93

29:                                               ; preds = %._crit_edge
  %30 = load ptr, ptr %5, align 8, !tbaa !3
  %31 = getelementptr inbounds nuw i8, ptr %30, i64 184
  %32 = load ptr, ptr %31, align 8, !tbaa !35
  tail call void @free(ptr noundef %32) #8
  br label %33

33:                                               ; preds = %1, %29
  ret void
}